#include <math.h>
#include <stdio.h>
#include <stdlib.h>
#include <string.h>

int main()
{
	char str[11],substr[4];
	char maxs;
	int j,max;
	while(scanf("%s%s",str,substr)!=EOF)  //???%s?????scanf????????
	{
		max=0;
		maxs=str[0]; //????strcpy??
		for(j=1;j<strlen(str);j++)
		{
			if(str[j]>maxs) {max=j;maxs=str[j];}
		}
		for(j=0;j<=max;j++) printf("%c",str[j]);
		printf("%s",substr);
		for(j=max+1;j<strlen(str);j++)
		{
			if(str[j]=='\0') break;
			else printf("%c",str[j]);
		}
		printf("\n");
	}	
	return 0;
}